target datalayout = "e-m:e-p270:32:32-p271:32:32-p272:64:64-i64:64-i128:128-f80:128-n8:16:32:64-S128"
target triple = "x86_64-pc-linux-gnu"

%struct.List = type { i32, i32, i32, ptr, [0 x %union.ListCell] }
%union.ListCell = type { ptr }
%struct.RelOptInfo = type { i32, i32, ptr, double, i8, i8, i8, ptr, ptr, ptr, ptr, ptr, ptr, ptr, ptr, ptr, ptr, i32, i32, i32, i16, i16, ptr, ptr, ptr, ptr, ptr, ptr, ptr, ptr, i32, double, double, ptr, ptr, ptr, i32, i32, i32, i32, i8, ptr, ptr, ptr, ptr, ptr, %struct.QualCost, i32, ptr, i8, i8, ptr, ptr, ptr, ptr, i32, ptr, i8, ptr, ptr, ptr, ptr, ptr, ptr }
%struct.QualCost = type { double, double }
%struct.Node = type { i32 }
%struct.ProjectionPath = type { %struct.Path, ptr, i8 }
%struct.Path = type { i32, i32, ptr, ptr, ptr, i8, i8, i32, double, i32, double, double, ptr }
%struct.ProjectSetPath = type { %struct.Path, ptr }
%struct.AppendPath = type { %struct.Path, ptr, i32, double }

; Function Attrs: inlinehint nounwind uwtable
define internal ptr @list_nth_cell(ptr noundef %0, i32 noundef %1) #3 {
  %3 = alloca ptr, align 8
  %4 = alloca i32, align 4
  store ptr %0, ptr %3, align 8
  store i32 %1, ptr %4, align 4
  %5 = load ptr, ptr %3, align 8
  %6 = getelementptr inbounds nuw %struct.List, ptr %5, i32 0, i32 3
  %7 = load ptr, ptr %6, align 8
  %8 = load i32, ptr %4, align 4
  %9 = sext i32 %8 to i64
  %10 = getelementptr inbounds %union.ListCell, ptr %7, i64 %9
  ret ptr %10
}

; Function Attrs: nounwind uwtable
define dso_local zeroext i1 @is_dummy_rel(ptr noundef %0) #0 {
  %2 = alloca i1, align 1
  %3 = alloca ptr, align 8
  %4 = alloca ptr, align 8
  %5 = alloca i32, align 4
  store ptr %0, ptr %3, align 8
  call void @llvm.lifetime.start.p0(i64 8, ptr %4) #7
  %6 = load ptr, ptr %3, align 8
  %7 = getelementptr inbounds nuw %struct.RelOptInfo, ptr %6, i32 0, i32 8
  %8 = load ptr, ptr %7, align 8
  %9 = icmp eq ptr %8, null
  br i1 %9, label %10, label %11

10:                                               ; preds = %1
  store i1 false, ptr %2, align 1
  store i32 1, ptr %5, align 4
  br label %50

11:                                               ; preds = %1
  %12 = load ptr, ptr %3, align 8
  %13 = getelementptr inbounds nuw %struct.RelOptInfo, ptr %12, i32 0, i32 8
  %14 = load ptr, ptr %13, align 8
  %15 = call ptr @list_nth_cell(ptr noundef %14, i32 noundef 0)
  %16 = load ptr, ptr %15, align 8
  store ptr %16, ptr %4, align 8
  br label %17

17:                                               ; preds = %37, %11
  %18 = load ptr, ptr %4, align 8
  %19 = getelementptr inbounds nuw %struct.Node, ptr %18, i32 0, i32 0
  %20 = load i32, ptr %19, align 4
  %21 = icmp eq i32 %20, 300
  br i1 %21, label %22, label %26

22:                                               ; preds = %17
  %23 = load ptr, ptr %4, align 8
  %24 = getelementptr inbounds nuw %struct.ProjectionPath, ptr %23, i32 0, i32 1
  %25 = load ptr, ptr %24, align 8
  store ptr %25, ptr %4, align 8
  br label %37

26:                                               ; preds = %17
  %27 = load ptr, ptr %4, align 8
  %28 = getelementptr inbounds nuw %struct.Node, ptr %27, i32 0, i32 0
  %29 = load i32, ptr %28, align 4
  %30 = icmp eq i32 %29, 301
  br i1 %30, label %31, label %35

31:                                               ; preds = %26
  %32 = load ptr, ptr %4, align 8
  %33 = getelementptr inbounds nuw %struct.ProjectSetPath, ptr %32, i32 0, i32 1
  %34 = load ptr, ptr %33, align 8
  store ptr %34, ptr %4, align 8
  br label %36

35:                                               ; preds = %26
  br label %38

36:                                               ; preds = %31
  br label %37

37:                                               ; preds = %36, %22
  br label %17

38:                                               ; preds = %35
  %39 = load ptr, ptr %4, align 8
  %40 = getelementptr inbounds nuw %struct.Node, ptr %39, i32 0, i32 0
  %41 = load i32, ptr %40, align 4
  %42 = icmp eq i32 %41, 289
  br i1 %42, label %43, label %49

43:                                               ; preds = %38
  %44 = load ptr, ptr %4, align 8
  %45 = getelementptr inbounds nuw %struct.AppendPath, ptr %44, i32 0, i32 1
  %46 = load ptr, ptr %45, align 8
  %47 = icmp eq ptr %46, null
  br i1 %47, label %48, label %49

48:                                               ; preds = %43
  store i1 true, ptr %2, align 1
  store i32 1, ptr %5, align 4
  br label %50

49:                                               ; preds = %43, %38
  store i1 false, ptr %2, align 1
  store i32 1, ptr %5, align 4
  br label %50

50:                                               ; preds = %49, %48, %10
  call void @llvm.lifetime.end.p0(i64 8, ptr %4) #7
  %51 = load i1, ptr %2, align 1
  ret i1 %51
}