; Function Attrs: nofree norecurse nosync nounwind memory(read, inaccessiblemem: none) uwtable
define dso_local noundef zeroext i1 @is_dummy_rel(ptr noundef readonly captures(none) %0) local_unnamed_addr #5 {
  %2 = getelementptr inbounds nuw i8, ptr %0, i64 40
  %3 = load ptr, ptr %2, align 8
  %4 = icmp eq ptr %3, null
  br i1 %4, label %14, label %5

5:                                                ; preds = %1
  %6 = getelementptr i8, ptr %3, i64 16
  %.val = load ptr, ptr %6, align 8
  br label %7

7:                                                ; preds = %9, %5
  %.0.in = phi ptr [ %.val, %5 ], [ %.1.in, %9 ]
  %.0 = load ptr, ptr %.0.in, align 8
  %8 = load i32, ptr %.0, align 4
  switch i32 %8, label %.loopexit [
    i32 300, label %9
    i32 301, label %9
    i32 289, label %10
  ]

9:                                                ; preds = %7, %7
  %.1.in = getelementptr inbounds nuw i8, ptr %.0, i64 80
  br label %7

10:                                               ; preds = %7
  %11 = getelementptr inbounds nuw i8, ptr %.0, i64 80
  %12 = load ptr, ptr %11, align 8
  %13 = icmp eq ptr %12, null
  br i1 %13, label %14, label %.loopexit

.loopexit:                                        ; preds = %7, %10
  br label %14

14:                                               ; preds = %10, %1, %.loopexit
  %.09 = phi i1 [ false, %.loopexit ], [ false, %1 ], [ true, %10 ]
  ret i1 %.09
}